; Function Attrs: mustprogress nounwind uwtable
define dso_local void @_ZN21CoverageTestExtensionD2Ev(ptr noundef nonnull align 8 dereferenceable(64) %0) unnamed_addr #4 align 2 personality ptr @__gxx_personality_v0 {
  store ptr getelementptr inbounds ({ [10 x ptr] }, ptr @_ZTV21CoverageTestExtension, i64 0, i32 0, i64 2), ptr %0, align 8
  %2 = getelementptr inbounds i8, ptr %0, i64 16
  %3 = load ptr, ptr %2, align 8
  %4 = getelementptr inbounds i8, ptr %0, i64 24
  %5 = load ptr, ptr %4, align 8
  %.not.i.i = icmp eq ptr %5, %3
  br i1 %.not.i.i, label %_ZNSt6vectorIP14ExtensionValueSaIS1_EE5clearEv.exit, label %6

6:                                                ; preds = %1
  store ptr %3, ptr %4, align 8
  br label %_ZNSt6vectorIP14ExtensionValueSaIS1_EE5clearEv.exit

_ZNSt6vectorIP14ExtensionValueSaIS1_EE5clearEv.exit: ; preds = %1, %6
  %7 = getelementptr inbounds i8, ptr %0, i64 40
  %8 = load ptr, ptr %7, align 8
  %.not.i.i.i = icmp eq ptr %8, null
  br i1 %.not.i.i.i, label %_ZNSt6vectorIP8ConstantSaIS1_EED2Ev.exit, label %9

9:                                                ; preds = %_ZNSt6vectorIP14ExtensionValueSaIS1_EE5clearEv.exit
  tail call void @_ZdlPv(ptr noundef nonnull %8) #14
  %.pre = load ptr, ptr %2, align 8
  br label %_ZNSt6vectorIP8ConstantSaIS1_EED2Ev.exit

_ZNSt6vectorIP8ConstantSaIS1_EED2Ev.exit:         ; preds = %_ZNSt6vectorIP14ExtensionValueSaIS1_EE5clearEv.exit, %9
  %10 = phi ptr [ %3, %_ZNSt6vectorIP14ExtensionValueSaIS1_EE5clearEv.exit ], [ %.pre, %9 ]
  %.not.i.i.i1 = icmp eq ptr %10, null
  br i1 %.not.i.i.i1, label %_ZNSt6vectorIP14ExtensionValueSaIS1_EED2Ev.exit, label %11

11:                                               ; preds = %_ZNSt6vectorIP8ConstantSaIS1_EED2Ev.exit
  tail call void @_ZdlPv(ptr noundef nonnull %10) #14
  br label %_ZNSt6vectorIP14ExtensionValueSaIS1_EED2Ev.exit

_ZNSt6vectorIP14ExtensionValueSaIS1_EED2Ev.exit:  ; preds = %_ZNSt6vectorIP8ConstantSaIS1_EED2Ev.exit, %11
  tail call void @_ZN12AbsExtensionD2Ev(ptr noundef nonnull align 8 dereferenceable(8) %0) #15
  ret void
}